target datalayout = "e-m:e-p270:32:32-p271:32:32-p272:64:64-i64:64-i128:128-f80:128-n8:16:32:64-S128"
target triple = "x86_64-pc-linux-gnu"

%struct.evp_pkey_asn1_method_st = type { i32, i32, i64, ptr, ptr, ptr, ptr, ptr, ptr, ptr, ptr, ptr, ptr, ptr, ptr, ptr, ptr, ptr, ptr, ptr, ptr, ptr, ptr, ptr, ptr, ptr, ptr, ptr, ptr, ptr, ptr, ptr, ptr, ptr, ptr, ptr, ptr, ptr, ptr, ptr, ptr }
%struct.evp_pkey_st = type { i32, i32, ptr, ptr, ptr, %union.legacy_pkey_st, %union.legacy_pkey_st, %struct.CRYPTO_REF_COUNT, ptr, ptr, i32, i8, %struct.crypto_ex_data_st, ptr, ptr, i64, ptr, i64, %struct.anon }
%union.legacy_pkey_st = type { ptr }
%struct.CRYPTO_REF_COUNT = type { i32 }
%struct.crypto_ex_data_st = type { ptr, ptr }
%struct.anon = type { i32, i32, i32 }

; Function Attrs: nounwind uwtable
define internal i32 @ecx_set_pub_key(ptr noundef %0, ptr noundef %1, i64 noundef %2) #0 {
  %4 = alloca i32, align 4
  %5 = alloca ptr, align 8
  %6 = alloca ptr, align 8
  %7 = alloca i64, align 8
  %8 = alloca ptr, align 8
  %9 = alloca ptr, align 8
  %10 = alloca i32, align 4
  store ptr %0, ptr %5, align 8, !tbaa !3
  store ptr %1, ptr %6, align 8, !tbaa !14
  store i64 %2, ptr %7, align 8, !tbaa !46
  call void @llvm.lifetime.start.p0(i64 8, ptr %8) #4
  store ptr null, ptr %8, align 8, !tbaa !50
  call void @llvm.lifetime.start.p0(i64 8, ptr %9) #4
  store ptr null, ptr %9, align 8, !tbaa !31
  %11 = load ptr, ptr %5, align 8, !tbaa !3
  %12 = getelementptr inbounds nuw %struct.evp_pkey_st, ptr %11, i32 0, i32 13
  %13 = load ptr, ptr %12, align 8, !tbaa !51
  %14 = icmp ne ptr %13, null
  br i1 %14, label %15, label %21

15:                                               ; preds = %3
  %16 = load ptr, ptr %5, align 8, !tbaa !3
  %17 = getelementptr inbounds nuw %struct.evp_pkey_st, ptr %16, i32 0, i32 13
  %18 = load ptr, ptr %17, align 8, !tbaa !51
  %19 = call ptr @EVP_KEYMGMT_get0_provider(ptr noundef %18)
  %20 = call ptr @ossl_provider_libctx(ptr noundef %19)
  store ptr %20, ptr %8, align 8, !tbaa !50
  br label %21

21:                                               ; preds = %15, %3
  %22 = load ptr, ptr %6, align 8, !tbaa !14
  %23 = load i64, ptr %7, align 8, !tbaa !46
  %24 = trunc i64 %23 to i32
  %25 = load ptr, ptr %5, align 8, !tbaa !3
  %26 = getelementptr inbounds nuw %struct.evp_pkey_st, ptr %25, i32 0, i32 2
  %27 = load ptr, ptr %26, align 8, !tbaa !16
  %28 = getelementptr inbounds nuw %struct.evp_pkey_asn1_method_st, ptr %27, i32 0, i32 0
  %29 = load i32, ptr %28, align 8, !tbaa !29
  %30 = load ptr, ptr %8, align 8, !tbaa !50
  %31 = call ptr @ossl_ecx_key_op(ptr noundef null, ptr noundef %22, i32 noundef %24, i32 noundef %29, i32 noundef 0, ptr noundef %30, ptr noundef null)
  store ptr %31, ptr %9, align 8, !tbaa !31
  %32 = load ptr, ptr %9, align 8, !tbaa !31
  %33 = icmp ne ptr %32, null
  br i1 %33, label %34, label %43

34:                                               ; preds = %21
  %35 = load ptr, ptr %5, align 8, !tbaa !3
  %36 = load ptr, ptr %5, align 8, !tbaa !3
  %37 = getelementptr inbounds nuw %struct.evp_pkey_st, ptr %36, i32 0, i32 2
  %38 = load ptr, ptr %37, align 8, !tbaa !16
  %39 = getelementptr inbounds nuw %struct.evp_pkey_asn1_method_st, ptr %38, i32 0, i32 0
  %40 = load i32, ptr %39, align 8, !tbaa !29
  %41 = load ptr, ptr %9, align 8, !tbaa !31
  %42 = call i32 @EVP_PKEY_assign(ptr noundef %35, i32 noundef %40, ptr noundef %41)
  store i32 1, ptr %4, align 4
  store i32 1, ptr %10, align 4
  br label %44

43:                                               ; preds = %21
  store i32 0, ptr %4, align 4
  store i32 1, ptr %10, align 4
  br label %44

44:                                               ; preds = %43, %34
  call void @llvm.lifetime.end.p0(i64 8, ptr %9) #4
  call void @llvm.lifetime.end.p0(i64 8, ptr %8) #4
  %45 = load i32, ptr %4, align 4
  ret i32 %45
}